target datalayout = "e-m:e-p270:32:32-p271:32:32-p272:64:64-i64:64-i128:128-f80:128-n8:16:32:64-S128"
target triple = "x86_64-pc-linux-gnu"

%struct.stbi__write_context = type { ptr, ptr, [64 x i8], i32 }

; Function Attrs: nounwind uwtable
define void @stbiw__putc(ptr noundef %0, i8 noundef zeroext %1) #0 {
  %3 = alloca ptr, align 8
  %4 = alloca i8, align 1
  store ptr %0, ptr %3, align 8, !tbaa !7
  store i8 %1, ptr %4, align 1, !tbaa !18
  %5 = load ptr, ptr %3, align 8, !tbaa !7
  %6 = getelementptr inbounds nuw %struct.stbi__write_context, ptr %5, i32 0, i32 0
  %7 = load ptr, ptr %6, align 8, !tbaa !9
  %8 = load ptr, ptr %3, align 8, !tbaa !7
  %9 = getelementptr inbounds nuw %struct.stbi__write_context, ptr %8, i32 0, i32 1
  %10 = load ptr, ptr %9, align 8, !tbaa !11
  call void %7(ptr noundef %10, ptr noundef %4, i32 noundef 1)
  ret void
}

; Function Attrs: nounwind uwtable
define void @stbiw__jpg_writeBits(ptr noundef %0, ptr noundef %1, ptr noundef %2, ptr noundef %3) #0 {
  %5 = alloca ptr, align 8
  %6 = alloca ptr, align 8
  %7 = alloca ptr, align 8
  %8 = alloca ptr, align 8
  %9 = alloca i32, align 4
  %10 = alloca i32, align 4
  %11 = alloca i8, align 1
  store ptr %0, ptr %5, align 8, !tbaa !7
  store ptr %1, ptr %6, align 8, !tbaa !43
  store ptr %2, ptr %7, align 8, !tbaa !43
  store ptr %3, ptr %8, align 8, !tbaa !77
  call void @llvm.lifetime.start.p0(i64 4, ptr %9) #11
  %12 = load ptr, ptr %6, align 8, !tbaa !43
  %13 = load i32, ptr %12, align 4, !tbaa !3
  store i32 %13, ptr %9, align 4, !tbaa !3
  call void @llvm.lifetime.start.p0(i64 4, ptr %10) #11
  %14 = load ptr, ptr %7, align 8, !tbaa !43
  %15 = load i32, ptr %14, align 4, !tbaa !3
  store i32 %15, ptr %10, align 4, !tbaa !3
  %16 = load ptr, ptr %8, align 8, !tbaa !77
  %17 = getelementptr inbounds i16, ptr %16, i64 1
  %18 = load i16, ptr %17, align 2, !tbaa !55
  %19 = zext i16 %18 to i32
  %20 = load i32, ptr %10, align 4, !tbaa !3
  %21 = add nsw i32 %20, %19
  store i32 %21, ptr %10, align 4, !tbaa !3
  %22 = load ptr, ptr %8, align 8, !tbaa !77
  %23 = getelementptr inbounds i16, ptr %22, i64 0
  %24 = load i16, ptr %23, align 2, !tbaa !55
  %25 = zext i16 %24 to i32
  %26 = load i32, ptr %10, align 4, !tbaa !3
  %27 = sub nsw i32 24, %26
  %28 = shl i32 %25, %27
  %29 = load i32, ptr %9, align 4, !tbaa !3
  %30 = or i32 %29, %28
  store i32 %30, ptr %9, align 4, !tbaa !3
  br label %31

31:                                               ; preds = %46, %4
  %32 = load i32, ptr %10, align 4, !tbaa !3
  %33 = icmp sge i32 %32, 8
  br i1 %33, label %34, label %51

34:                                               ; preds = %31
  call void @llvm.lifetime.start.p0(i64 1, ptr %11) #11
  %35 = load i32, ptr %9, align 4, !tbaa !3
  %36 = ashr i32 %35, 16
  %37 = and i32 %36, 255
  %38 = trunc i32 %37 to i8
  store i8 %38, ptr %11, align 1, !tbaa !18
  %39 = load ptr, ptr %5, align 8, !tbaa !7
  %40 = load i8, ptr %11, align 1, !tbaa !18
  call void @stbiw__putc(ptr noundef %39, i8 noundef zeroext %40)
  %41 = load i8, ptr %11, align 1, !tbaa !18
  %42 = zext i8 %41 to i32
  %43 = icmp eq i32 %42, 255
  br i1 %43, label %44, label %46

44:                                               ; preds = %34
  %45 = load ptr, ptr %5, align 8, !tbaa !7
  call void @stbiw__putc(ptr noundef %45, i8 noundef zeroext 0)
  br label %46

46:                                               ; preds = %44, %34
  %47 = load i32, ptr %9, align 4, !tbaa !3
  %48 = shl i32 %47, 8
  store i32 %48, ptr %9, align 4, !tbaa !3
  %49 = load i32, ptr %10, align 4, !tbaa !3
  %50 = sub nsw i32 %49, 8
  store i32 %50, ptr %10, align 4, !tbaa !3
  call void @llvm.lifetime.end.p0(i64 1, ptr %11) #11
  br label %31, !llvm.loop !79

51:                                               ; preds = %31
  %52 = load i32, ptr %9, align 4, !tbaa !3
  %53 = load ptr, ptr %6, align 8, !tbaa !43
  store i32 %52, ptr %53, align 4, !tbaa !3
  %54 = load i32, ptr %10, align 4, !tbaa !3
  %55 = load ptr, ptr %7, align 8, !tbaa !43
  store i32 %54, ptr %55, align 4, !tbaa !3
  call void @llvm.lifetime.end.p0(i64 4, ptr %10) #11
  call void @llvm.lifetime.end.p0(i64 4, ptr %9) #11
  ret void
}