; Function Attrs: nounwind uwtable
define void @stbiw__jpg_writeBits(ptr noundef readonly captures(none) %0, ptr noundef captures(none) %1, ptr noundef captures(none) %2, ptr noundef readonly captures(none) %3) local_unnamed_addr #5 {
  %5 = alloca i8, align 1
  %6 = alloca i8, align 1
  %7 = load i32, ptr %1, align 4, !tbaa !3
  %8 = load i32, ptr %2, align 4, !tbaa !3
  %9 = getelementptr inbounds nuw i8, ptr %3, i64 2
  %10 = load i16, ptr %9, align 2, !tbaa !44
  %11 = zext i16 %10 to i32
  %12 = add nsw i32 %8, %11
  %13 = load i16, ptr %3, align 2, !tbaa !44
  %14 = zext i16 %13 to i32
  %15 = sub nsw i32 24, %12
  %16 = shl i32 %14, %15
  %17 = or i32 %16, %7
  %18 = icmp sgt i32 %12, 7
  br i1 %18, label %.lr.ph, label %._crit_edge

.lr.ph:                                           ; preds = %4
  %19 = getelementptr inbounds nuw i8, ptr %0, i64 8
  br label %20

20:                                               ; preds = %.lr.ph, %30
  %.020 = phi i32 [ %17, %.lr.ph ], [ %31, %30 ]
  %.01819 = phi i32 [ %12, %.lr.ph ], [ %32, %30 ]
  %21 = lshr i32 %.020, 16
  %22 = trunc i32 %21 to i8
  call void @llvm.lifetime.start.p0(i64 1, ptr nonnull %6)
  store i8 %22, ptr %6, align 1, !tbaa !11
  %23 = load ptr, ptr %0, align 8, !tbaa !7
  %24 = load ptr, ptr %19, align 8, !tbaa !10
  call void %23(ptr noundef %24, ptr noundef nonnull %6, i32 noundef 1) #26
  call void @llvm.lifetime.end.p0(i64 1, ptr nonnull %6)
  %25 = and i32 %.020, 16711680
  %26 = icmp eq i32 %25, 16711680
  br i1 %26, label %27, label %30

27:                                               ; preds = %20
  call void @llvm.lifetime.start.p0(i64 1, ptr nonnull %5)
  store i8 0, ptr %5, align 1, !tbaa !11
  %28 = load ptr, ptr %0, align 8, !tbaa !7
  %29 = load ptr, ptr %19, align 8, !tbaa !10
  call void %28(ptr noundef %29, ptr noundef nonnull %5, i32 noundef 1) #26
  call void @llvm.lifetime.end.p0(i64 1, ptr nonnull %5)
  br label %30

30:                                               ; preds = %27, %20
  %31 = shl i32 %.020, 8
  %32 = add nsw i32 %.01819, -8
  %33 = icmp sgt i32 %.01819, 15
  br i1 %33, label %20, label %._crit_edge, !llvm.loop !66

._crit_edge:                                      ; preds = %30, %4
  %.018.lcssa = phi i32 [ %12, %4 ], [ %32, %30 ]
  %.0.lcssa = phi i32 [ %17, %4 ], [ %31, %30 ]
  store i32 %.0.lcssa, ptr %1, align 4, !tbaa !3
  store i32 %.018.lcssa, ptr %2, align 4, !tbaa !3
  ret void
}